target datalayout = "e-m:e-p270:32:32-p271:32:32-p272:64:64-i64:64-i128:128-f80:128-n8:16:32:64-S128"
target triple = "x86_64-pc-linux-gnu"

; Function Attrs: nounwind uwtable
define void @Map_MappingSetupTruthTables(ptr noundef %0) #0 {
  %2 = alloca ptr, align 8
  %3 = alloca i32, align 4
  %4 = alloca i32, align 4
  store ptr %0, ptr %2, align 8, !tbaa !50
  call void @llvm.lifetime.start.p0(i64 4, ptr %3) #4
  call void @llvm.lifetime.start.p0(i64 4, ptr %4) #4
  store i32 0, ptr %3, align 4, !tbaa !10
  br label %5

5:                                                ; preds = %33, %1
  %6 = load i32, ptr %3, align 4, !tbaa !10
  %7 = icmp slt i32 %6, 32
  br i1 %7, label %8, label %36

8:                                                ; preds = %5
  store i32 0, ptr %4, align 4, !tbaa !10
  br label %9

9:                                                ; preds = %29, %8
  %10 = load i32, ptr %4, align 4, !tbaa !10
  %11 = icmp slt i32 %10, 5
  br i1 %11, label %12, label %32

12:                                               ; preds = %9
  %13 = load i32, ptr %3, align 4, !tbaa !10
  %14 = load i32, ptr %4, align 4, !tbaa !10
  %15 = shl i32 1, %14
  %16 = and i32 %13, %15
  %17 = icmp ne i32 %16, 0
  br i1 %17, label %18, label %28

18:                                               ; preds = %12
  %19 = load i32, ptr %3, align 4, !tbaa !10
  %20 = shl i32 1, %19
  %21 = load ptr, ptr %2, align 8, !tbaa !50
  %22 = load i32, ptr %4, align 4, !tbaa !10
  %23 = sext i32 %22 to i64
  %24 = getelementptr inbounds [2 x i32], ptr %21, i64 %23
  %25 = getelementptr inbounds [2 x i32], ptr %24, i64 0, i64 0
  %26 = load i32, ptr %25, align 4, !tbaa !10
  %27 = or i32 %26, %20
  store i32 %27, ptr %25, align 4, !tbaa !10
  br label %28

28:                                               ; preds = %18, %12
  br label %29

29:                                               ; preds = %28
  %30 = load i32, ptr %4, align 4, !tbaa !10
  %31 = add nsw i32 %30, 1
  store i32 %31, ptr %4, align 4, !tbaa !10
  br label %9, !llvm.loop !54

32:                                               ; preds = %9
  br label %33

33:                                               ; preds = %32
  %34 = load i32, ptr %3, align 4, !tbaa !10
  %35 = add nsw i32 %34, 1
  store i32 %35, ptr %3, align 4, !tbaa !10
  br label %5, !llvm.loop !55

36:                                               ; preds = %5
  store i32 0, ptr %4, align 4, !tbaa !10
  br label %37

37:                                               ; preds = %52, %36
  %38 = load i32, ptr %4, align 4, !tbaa !10
  %39 = icmp slt i32 %38, 5
  br i1 %39, label %40, label %55

40:                                               ; preds = %37
  %41 = load ptr, ptr %2, align 8, !tbaa !50
  %42 = load i32, ptr %4, align 4, !tbaa !10
  %43 = sext i32 %42 to i64
  %44 = getelementptr inbounds [2 x i32], ptr %41, i64 %43
  %45 = getelementptr inbounds [2 x i32], ptr %44, i64 0, i64 0
  %46 = load i32, ptr %45, align 4, !tbaa !10
  %47 = load ptr, ptr %2, align 8, !tbaa !50
  %48 = load i32, ptr %4, align 4, !tbaa !10
  %49 = sext i32 %48 to i64
  %50 = getelementptr inbounds [2 x i32], ptr %47, i64 %49
  %51 = getelementptr inbounds [2 x i32], ptr %50, i64 0, i64 1
  store i32 %46, ptr %51, align 4, !tbaa !10
  br label %52

52:                                               ; preds = %40
  %53 = load i32, ptr %4, align 4, !tbaa !10
  %54 = add nsw i32 %53, 1
  store i32 %54, ptr %4, align 4, !tbaa !10
  br label %37, !llvm.loop !56

55:                                               ; preds = %37
  %56 = load ptr, ptr %2, align 8, !tbaa !50
  %57 = getelementptr inbounds [2 x i32], ptr %56, i64 5
  %58 = getelementptr inbounds [2 x i32], ptr %57, i64 0, i64 0
  store i32 0, ptr %58, align 4, !tbaa !10
  %59 = load ptr, ptr %2, align 8, !tbaa !50
  %60 = getelementptr inbounds [2 x i32], ptr %59, i64 5
  %61 = getelementptr inbounds [2 x i32], ptr %60, i64 0, i64 1
  store i32 -1, ptr %61, align 4, !tbaa !10
  call void @llvm.lifetime.end.p0(i64 4, ptr %4) #4
  call void @llvm.lifetime.end.p0(i64 4, ptr %3) #4
  ret void
}