; Function Attrs: nofree norecurse nosync nounwind memory(argmem: readwrite) uwtable
define void @Map_MappingSetupTruthTables(ptr noundef captures(none) %0) local_unnamed_addr #6 {
  br label %.preheader17

.preheader17:                                     ; preds = %1, %12
  %.01619 = phi i32 [ 0, %1 ], [ %13, %12 ]
  %2 = shl nuw i32 1, %.01619
  br label %3

3:                                                ; preds = %.preheader17, %11
  %indvars.iv = phi i64 [ 0, %.preheader17 ], [ %indvars.iv.next, %11 ]
  %4 = trunc nuw nsw i64 %indvars.iv to i32
  %5 = shl nuw nsw i32 1, %4
  %6 = and i32 %5, %.01619
  %.not = icmp eq i32 %6, 0
  br i1 %.not, label %11, label %7

7:                                                ; preds = %3
  %8 = getelementptr inbounds nuw [2 x i32], ptr %0, i64 %indvars.iv
  %9 = load i32, ptr %8, align 4, !tbaa !39
  %10 = or i32 %9, %2
  store i32 %10, ptr %8, align 4, !tbaa !39
  br label %11

11:                                               ; preds = %3, %7
  %indvars.iv.next = add nuw nsw i64 %indvars.iv, 1
  %exitcond.not = icmp eq i64 %indvars.iv.next, 5
  br i1 %exitcond.not, label %12, label %3, !llvm.loop !51

12:                                               ; preds = %11
  %13 = add nuw nsw i32 %.01619, 1
  %exitcond22.not = icmp eq i32 %13, 32
  br i1 %exitcond22.not, label %.preheader, label %.preheader17, !llvm.loop !52

.preheader:                                       ; preds = %12, %.preheader
  %indvars.iv23 = phi i64 [ %indvars.iv.next24, %.preheader ], [ 0, %12 ]
  %14 = getelementptr inbounds nuw [2 x i32], ptr %0, i64 %indvars.iv23
  %15 = load i32, ptr %14, align 4, !tbaa !39
  %16 = getelementptr inbounds nuw i8, ptr %14, i64 4
  store i32 %15, ptr %16, align 4, !tbaa !39
  %indvars.iv.next24 = add nuw nsw i64 %indvars.iv23, 1
  %exitcond26.not = icmp eq i64 %indvars.iv.next24, 5
  br i1 %exitcond26.not, label %17, label %.preheader, !llvm.loop !53

17:                                               ; preds = %.preheader
  %18 = getelementptr inbounds nuw i8, ptr %0, i64 40
  store i32 0, ptr %18, align 4, !tbaa !39
  %19 = getelementptr inbounds nuw i8, ptr %0, i64 44
  store i32 -1, ptr %19, align 4, !tbaa !39
  ret void
}